target datalayout = "e-m:e-p270:32:32-p271:32:32-p272:64:64-i64:64-i128:128-f80:128-n8:16:32:64-S128"
target triple = "x86_64-pc-linux-gnu"

%class.RepositoryIterator = type { ptr, i32, i32 }

@_ZL12_path_buffer = internal global [4097 x i8] zeroinitializer, align 16
@.str = private unnamed_addr constant [3 x i8] c"%s\00", align 1

; Function Attrs: mustprogress nounwind uwtable
define hidden noundef ptr @_ZNK18RepositoryIterator15fully_qualifiedEPKc(ptr noundef nonnull align 8 dereferenceable(16) %0, ptr noundef %1) #1 align 2 {
  %3 = alloca ptr, align 8
  %4 = alloca ptr, align 8
  %5 = alloca i32, align 4
  store ptr %0, ptr %3, align 8
  store ptr %1, ptr %4, align 8
  %6 = load ptr, ptr %3, align 8
  %7 = getelementptr inbounds %class.RepositoryIterator, ptr %6, i32 0, i32 1
  %8 = load i32, ptr %7, align 8
  %9 = sext i32 %8 to i64
  %10 = getelementptr inbounds i8, ptr @_ZL12_path_buffer, i64 %9
  %11 = getelementptr inbounds %class.RepositoryIterator, ptr %6, i32 0, i32 1
  %12 = load i32, ptr %11, align 8
  %13 = sext i32 %12 to i64
  %14 = sub i64 4097, %13
  %15 = load ptr, ptr %4, align 8
  %16 = call i32 (ptr, i64, ptr, ...) @jio_snprintf(ptr noundef %10, i64 noundef %14, ptr noundef @.str, ptr noundef %15)
  store i32 %16, ptr %5, align 4
  %17 = load i32, ptr %5, align 4
  %18 = icmp ne i32 %17, -1
  %19 = select i1 %18, ptr @_ZL12_path_buffer, ptr null
  ret ptr %19
}