; Function Attrs: mustprogress nounwind uwtable
define hidden noundef ptr @_ZNK18RepositoryIterator15fully_qualifiedEPKc(ptr nocapture noundef nonnull readonly align 8 dereferenceable(16) %0, ptr noundef %1) local_unnamed_addr #0 align 2 {
  %3 = getelementptr inbounds i8, ptr %0, i64 8
  %4 = load i32, ptr %3, align 8
  %5 = sext i32 %4 to i64
  %6 = getelementptr inbounds i8, ptr @_ZL12_path_buffer, i64 %5
  %7 = sub nsw i64 4097, %5
  %8 = tail call i32 (ptr, i64, ptr, ...) @jio_snprintf(ptr noundef nonnull %6, i64 noundef %7, ptr noundef nonnull @.str, ptr noundef %1) #16
  %.not = icmp eq i32 %8, -1
  %9 = select i1 %.not, ptr null, ptr @_ZL12_path_buffer
  ret ptr %9
}